; Function Attrs: nounwind uwtable
define hidden range(i32 0, 2) i32 @_glfwIsVisualTransparentX11(ptr noundef %0) local_unnamed_addr #0 {
  %2 = load i32, ptr getelementptr inbounds nuw (i8, ptr @_glfw, i64 142624), align 8, !tbaa !95
  %.not = icmp eq i32 %2, 0
  br i1 %.not, label %12, label %3

3:                                                ; preds = %1
  %4 = load ptr, ptr getelementptr inbounds nuw (i8, ptr @_glfw, i64 142672), align 8, !tbaa !96
  %5 = load ptr, ptr getelementptr inbounds nuw (i8, ptr @_glfw, i64 137840), align 8, !tbaa !93
  %6 = tail call ptr %4(ptr noundef %5, ptr noundef %0) #17
  %.not4 = icmp eq ptr %6, null
  br i1 %.not4, label %12, label %7

7:                                                ; preds = %3
  %8 = getelementptr inbounds nuw i8, ptr %6, i64 30
  %9 = load i16, ptr %8, align 2, !tbaa !97
  %10 = icmp ne i16 %9, 0
  %11 = zext i1 %10 to i32
  br label %12

12:                                               ; preds = %3, %7, %1
  %.0 = phi i32 [ 0, %1 ], [ 0, %3 ], [ %11, %7 ]
  ret i32 %.0
}